(lp0
(cnumpy.core.multiarray
scalar
p1
(cnumpy
dtype
p2
(S'f8'
p3
I0
I1
tp4
Rp5
(I3
S'<'
p6
NNNI-1
I-1
I0
tp7
bS'\x98\xde\xbe\x16\xfe,\x1e@'
p8
tp9
Rp10
F0.44285714285714284
tp11
a(g1
(g5
S'*\xf9(\x8d\x15\xb1\x1e@'
p12
tp13
Rp14
F0.2785714285714286
tp15
a(g1
(g5
S'7\xbd\x8f\x89\xe6\xe9\x1e@'
p16
tp17
Rp18
F0.12857142857142856
tp19
a(g1
(g5
S'\xb9\x9d\xb8\xf9\xd5\xfd\x1e@'
p20
tp21
Rp22
F0.07857142857142857
tp23
a(g1
(g5
S'\xc9\xf2\x90\x8b\xcc\x0b\x1f@'
p24
tp25
Rp26
F0.07142857142857142
tp27
a.