(lp0
(cnumpy.core.multiarray
scalar
p1
(cnumpy
dtype
p2
(S'f8'
p3
I0
I1
tp4
Rp5
(I3
S'<'
p6
NNNI-1
I-1
I0
tp7
bS'c*h\xbfEX\x1e@'
p8
tp9
Rp10
F0.5142857142857142
tp11
a(g1
(g5
S'\xf7\t\x86\xe6g\x13\x1f@'
p12
tp13
Rp14
F0.12857142857142856
tp15
a(g1
(g5
S'\xf9\x92P^l%\x1f@'
p16
tp17
Rp18
F0.12142857142857143
tp19
a(g1
(g5
S'&\x87#\x1f\xf9R\x1f@'
p20
tp21
Rp22
F0.12142857142857143
tp23
a(g1
(g5
S'I\x1c\xb8\xf1\xd2V\x1f@'
p24
tp25
Rp26
F0.11428571428571428
tp27
a.