(lp0
(cnumpy.core.multiarray
scalar
p1
(cnumpy
dtype
p2
(S'f8'
p3
I0
I1
tp4
Rp5
(I3
S'<'
p6
NNNI-1
I-1
I0
tp7
bS'c*h\xbfEX\x1e@'
p8
tp9
Rp10
F0.75
tp11
a(g1
(g5
S'D\xadJ,\xfe\x1a\x1f@'
p12
tp13
Rp14
F0.75
tp15
a(g1
(g5
S'!0-\x99\xb6\xdd\x1f@'
p16
tp17
Rp18
F0.75
tp19
a(g1
(g5
S'\x81\xd9\x07\x837P @'
p20
tp21
Rp22
F0.75
tp23
a(g1
(g5
S'\xf4\x1ay\xb9\x93\xb1 @'
p24
tp25
Rp26
F0.75
tp27
a.