(lp0
(dp1
S'A'
p2
I2
sS'G'
p3
I5
sS'BETAH'
p4
F0.5
sS'Q'
p5
I7
sS'PENALTY'
p6
F0.0
sS'N'
p7
I4
sS'TAU'
p8
F0.5
sS'GAM'
p9
F0.8
sS'R_COVERAGE'
p10
F10.0
sS'LAM_C'
p11
F0.0005
sS'C_TOP'
p12
I2
sS'DELTA'
p13
F0.01
sS'VELOCITY'
p14
F5.0
sS'LAM_U'
p15
F0.0001
sS'LAM_Q'
p16
F0.25
sa(dp17
g2
I2
sg3
I5
sg4
F0.5
sg5
I7
sg6
F2.0
sg7
I4
sg8
F0.5
sg9
F0.8
sg10
F10.0
sg11
F0.0005
sg12
I2
sg13
F0.01
sg14
F5.0
sg15
F0.0001
sg16
F0.25
sa(dp18
g2
I2
sg3
I5
sg4
F0.5
sg5
I7
sg6
F4.0
sg7
I4
sg8
F0.5
sg9
F0.8
sg10
F10.0
sg11
F0.0005
sg12
I2
sg13
F0.01
sg14
F5.0
sg15
F0.0001
sg16
F0.25
sa(dp19
g2
I2
sg3
I5
sg4
F0.5
sg5
I7
sg6
F6.0
sg7
I4
sg8
F0.5
sg9
F0.8
sg10
F10.0
sg11
F0.0005
sg12
I2
sg13
F0.01
sg14
F5.0
sg15
F0.0001
sg16
F0.25
sa(dp20
g2
I2
sg3
I5
sg4
F0.5
sg5
I7
sg6
F8.0
sg7
I4
sg8
F0.5
sg9
F0.8
sg10
F10.0
sg11
F0.0005
sg12
I2
sg13
F0.01
sg14
F5.0
sg15
F0.0001
sg16
F0.25
sa.