(lp0
(lp1
cnumpy.core.multiarray
scalar
p2
(cnumpy
dtype
p3
(S'f8'
p4
I0
I1
tp5
Rp6
(I3
S'<'
p7
NNNI-1
I-1
I0
tp8
bS'\x13\x0f\x18\x8b\xb4\xe4\x1e@'
p9
tp10
Rp11
aF0.3742857142857143
aa(lp12
g2
(g6
S'\xad\xab\xc8\xda\x8cD\x1f@'
p13
tp14
Rp15
aF0.36964285714285716
aa(lp16
g2
(g6
S'\xeaac8\x02\xa2\x1f@'
p17
tp18
Rp19
aF0.3707142857142857
aa(lp20
g2
(g6
S'i0\xc6\x81\xa8\x01 @'
p21
tp22
Rp23
aF0.3817857142857144
aa(lp24
g2
(g6
S'\r\xbb0O)1 @'
p25
tp26
Rp27
aF0.36928571428571433
aa.