(lp0
(cnumpy.core.multiarray
scalar
p1
(cnumpy
dtype
p2
(S'f8'
p3
I0
I1
tp4
Rp5
(I3
S'<'
p6
NNNI-1
I-1
I0
tp7
bS'\xf9\x84\x89\x7fCk\x1f@'
p8
tp9
Rp10
F0.0
tp11
a(g1
(g5
S'\xf9\x84\x89\x7fCk\x1f@'
p12
tp13
Rp14
F0.0
tp15
a(g1
(g5
S'\xf9\x84\x89\x7fCk\x1f@'
p16
tp17
Rp18
F0.0
tp19
a(g1
(g5
S'\xf9\x84\x89\x7fCk\x1f@'
p20
tp21
Rp22
F0.0
tp23
a(g1
(g5
S'\xf9\x84\x89\x7fCk\x1f@'
p24
tp25
Rp26
F0.0
tp27
a.