(lp0
(dp1
S'A'
p2
I2
sS'TAU'
p3
F0.5
sS'GAM'
p4
F0.8
sS'R_COVERAGE'
p5
F10.0
sS'G'
p6
I5
sS'DELTA'
p7
F0.01
sS'LAM_C'
p8
F0.0005
sS'N'
p9
I4
sS'Q'
p10
I7
sS'C_TOP'
p11
I2
sS'ETA_DIRECT'
p12
F0.1
sS'VELOCITY'
p13
F5.0
sS'PENALTY'
p14
F5.0
sS'BETAH'
p15
F0.5
sS'LAM_U'
p16
F0.0001
sS'LAM_Q'
p17
F0.25
sa(dp18
g2
I2
sg3
F0.5
sg4
F0.8
sg5
F10.0
sg6
I5
sg7
F0.01
sg8
F0.0005
sg9
I4
sg10
I7
sg11
I2
sg12
F0.2
sg13
F5.0
sg14
F5.0
sg15
F0.5
sg16
F0.0001
sg17
F0.25
sa(dp19
g2
I2
sg3
F0.5
sg4
F0.8
sg5
F10.0
sg6
I5
sg7
F0.01
sg8
F0.0005
sg9
I4
sg10
I7
sg11
I2
sg12
F0.3
sg13
F5.0
sg14
F5.0
sg15
F0.5
sg16
F0.0001
sg17
F0.25
sa(dp20
g2
I2
sg3
F0.5
sg4
F0.8
sg5
F10.0
sg6
I5
sg7
F0.01
sg8
F0.0005
sg9
I4
sg10
I7
sg11
I2
sg12
F0.4
sg13
F5.0
sg14
F5.0
sg15
F0.5
sg16
F0.0001
sg17
F0.25
sa(dp21
g2
I2
sg3
F0.5
sg4
F0.8
sg5
F10.0
sg6
I5
sg7
F0.01
sg8
F0.0005
sg9
I4
sg10
I7
sg11
I2
sg12
F0.5
sg13
F5.0
sg14
F5.0
sg15
F0.5
sg16
F0.0001
sg17
F0.25
sa(dp22
g2
I2
sg3
F0.5
sg4
F0.8
sg5
F10.0
sg6
I5
sg7
F0.01
sg8
F0.0005
sg9
I4
sg10
I7
sg11
I2
sg12
F0.6
sg13
F5.0
sg14
F5.0
sg15
F0.5
sg16
F0.0001
sg17
F0.25
sa(dp23
g2
I2
sg3
F0.5
sg4
F0.8
sg5
F10.0
sg6
I5
sg7
F0.01
sg8
F0.0005
sg9
I4
sg10
I7
sg11
I2
sg12
F0.7
sg13
F5.0
sg14
F5.0
sg15
F0.5
sg16
F0.0001
sg17
F0.25
sa(dp24
g2
I2
sg3
F0.5
sg4
F0.8
sg5
F10.0
sg6
I5
sg7
F0.01
sg8
F0.0005
sg9
I4
sg10
I7
sg11
I2
sg12
F0.8
sg13
F5.0
sg14
F5.0
sg15
F0.5
sg16
F0.0001
sg17
F0.25
sa(dp25
g2
I2
sg3
F0.5
sg4
F0.8
sg5
F10.0
sg6
I5
sg7
F0.01
sg8
F0.0005
sg9
I4
sg10
I7
sg11
I2
sg12
F0.9
sg13
F5.0
sg14
F5.0
sg15
F0.5
sg16
F0.0001
sg17
F0.25
sa(dp26
g2
I2
sg3
F0.5
sg4
F0.8
sg5
F10.0
sg6
I5
sg7
F0.01
sg8
F0.0005
sg9
I4
sg10
I7
sg11
I2
sg12
F1.0
sg13
F5.0
sg14
F5.0
sg15
F0.5
sg16
F0.0001
sg17
F0.25
sa.