(lp0
(lp1
cnumpy.core.multiarray
scalar
p2
(cnumpy
dtype
p3
(S'f8'
p4
I0
I1
tp5
Rp6
(I3
S'<'
p7
NNNI-1
I-1
I0
tp8
bS'E\xaaG\xe6\xb7\xe8\x1e@'
p9
tp10
Rp11
aF0.38261904761904764
aa(lp12
g2
(g6
S'&n\x19\xff\x867\x1f@'
p13
tp14
Rp15
aF0.3788095238095239
aa(lp16
g2
(g6
S'\xd5\x92-\xa9\r\xa7\x1f@'
p17
tp18
Rp19
aF0.36880952380952375
aa(lp20
g2
(g6
S'\x14(\x17g\x06\x04 @'
p21
tp22
Rp23
aF0.37238095238095237
aa(lp24
g2
(g6
S'\x82\xddbQ\xa32 @'
p25
tp26
Rp27
aF0.37833333333333335
aa.