(lp0
(cnumpy.core.multiarray
scalar
p1
(cnumpy
dtype
p2
(S'f8'
p3
I0
I1
tp4
Rp5
(I3
S'<'
p6
NNNI-1
I-1
I0
tp7
bS'&\xab\xa0<\xe5\xd3\x1e@'
p8
tp9
Rp10
F0.5
tp11
a(g1
(g5
S'h\xf7\xa9]\xb7\xfa\x1e@'
p12
tp13
Rp14
F0.5
tp15
a(g1
(g5
S'\xaaC\xb3~\x89!\x1f@'
p16
tp17
Rp18
F0.5
tp19
a(g1
(g5
S'\xe6\x8f\xbc\x9f[H\x1f@'
p20
tp21
Rp22
F0.5
tp23
a(g1
(g5
S'*\xdc\xc5\xc0-o\x1f@'
p24
tp25
Rp26
F0.5
tp27
a.