(lp0
(dp1
S'A'
p2
I2
sS'TAU'
p3
F0.5
sS'GAM'
p4
F0.8
sS'R_COVERAGE'
p5
F10.0
sS'G'
p6
I5
sS'ALPHA_REMOTE'
p7
F1.0
sS'ALPHA_LOCAL'
p8
F1.0
sS'LAM_C'
p9
F0.0001
sS'N'
p10
I3
sS'Q'
p11
I7
sS'C_TOP'
p12
I2
sS'VELOCITY'
p13
F5.0
sS'PENALTY'
p14
F20.0
sS'BETAH'
p15
F0.5
sS'LAM_U'
p16
F0.0001
sS'DELTA'
p17
F0.01
sS'LAM_Q'
p18
F0.25
sa(dp19
g2
I2
sg3
F0.5
sg4
F0.8
sg5
F10.0
sg6
I5
sg7
F1.0
sg8
F1.0
sg9
F0.0005
sg10
I4
sg11
I7
sg12
I2
sg13
F5.0
sg14
F20.0
sg15
F0.5
sg16
F0.0001
sg17
F0.01
sg18
F0.25
sa(dp20
g2
I2
sg3
F0.5
sg4
F0.8
sg5
F10.0
sg6
I5
sg7
F1.0
sg8
F1.0
sg9
F0.001
sg10
I5
sg11
I7
sg12
I2
sg13
F5.0
sg14
F20.0
sg15
F0.5
sg16
F0.0001
sg17
F0.01
sg18
F0.25
sa(dp21
g2
I2
sg3
F0.5
sg4
F0.8
sg5
F10.0
sg6
I5
sg7
F1.0
sg8
F1.0
sg9
F0.0015
sg10
I6
sg11
I7
sg12
I2
sg13
F5.0
sg14
F20.0
sg15
F0.5
sg16
F0.0001
sg17
F0.01
sg18
F0.25
sa(dp22
g2
I2
sg3
F0.5
sg4
F0.8
sg5
F10.0
sg6
I5
sg7
F1.0
sg8
F1.0
sg9
F0.002
sg10
I6
sg11
I7
sg12
I2
sg13
F5.0
sg14
F20.0
sg15
F0.5
sg16
F0.0001
sg17
F0.01
sg18
F0.25
sa(dp23
g2
I2
sg3
F0.5
sg4
F0.8
sg5
F10.0
sg6
I5
sg7
F1.0
sg8
F1.0
sg9
F0.0025
sg10
I7
sg11
I7
sg12
I2
sg13
F5.0
sg14
F20.0
sg15
F0.5
sg16
F0.0001
sg17
F0.01
sg18
F0.25
sa(dp24
g2
I2
sg3
F0.5
sg4
F0.8
sg5
F10.0
sg6
I5
sg7
F1.0
sg8
F1.0
sg9
F0.003
sg10
I7
sg11
I7
sg12
I2
sg13
F5.0
sg14
F20.0
sg15
F0.5
sg16
F0.0001
sg17
F0.01
sg18
F0.25
sa(dp25
g2
I2
sg3
F0.5
sg4
F0.8
sg5
F10.0
sg6
I5
sg7
F1.0
sg8
F1.0
sg9
F0.0035
sg10
I8
sg11
I7
sg12
I2
sg13
F5.0
sg14
F20.0
sg15
F0.5
sg16
F0.0001
sg17
F0.01
sg18
F0.25
sa(dp26
g2
I2
sg3
F0.5
sg4
F0.8
sg5
F10.0
sg6
I5
sg7
F1.0
sg8
F1.0
sg9
F0.004
sg10
I8
sg11
I7
sg12
I2
sg13
F5.0
sg14
F20.0
sg15
F0.5
sg16
F0.0001
sg17
F0.01
sg18
F0.25
sa(dp27
g2
I2
sg3
F0.5
sg4
F0.8
sg5
F10.0
sg6
I5
sg7
F1.0
sg8
F1.0
sg9
F0.0045
sg10
I9
sg11
I7
sg12
I2
sg13
F5.0
sg14
F20.0
sg15
F0.5
sg16
F0.0001
sg17
F0.01
sg18
F0.25
sa.